; Function Attrs: nounwind uwtable
define internal void @spl_heap_it_move_forward(ptr noundef %0) #0 {
  %2 = getelementptr inbounds i8, ptr %0, i64 56
  %3 = load ptr, ptr %2, align 8
  %4 = getelementptr inbounds i8, ptr %3, i64 -32
  %5 = load ptr, ptr %4, align 8
  %6 = getelementptr inbounds i8, ptr %5, i64 36
  %7 = load i32, ptr %6, align 4
  %8 = and i32 %7, 1
  %.not = icmp eq i32 %8, 0
  br i1 %.not, label %12, label %9

9:                                                ; preds = %1
  %10 = load ptr, ptr @spl_ce_RuntimeException, align 8
  %11 = tail call ptr @zend_throw_exception(ptr noundef %10, ptr noundef nonnull @.str, i64 noundef 0) #14
  br label %14

12:                                               ; preds = %1
  %13 = tail call fastcc i32 @spl_ptr_heap_delete_top(ptr noundef nonnull %5, ptr noundef null, ptr noundef nonnull %2), !range !4
  tail call void @zend_user_it_invalidate_current(ptr noundef nonnull %0) #14
  br label %14

14:                                               ; preds = %12, %9
  ret void
}